; Function Attrs: mustprogress uwtable
define noundef range(i64 0, 2) i64 @_ZN32pxrInternal_v0_24__pxrReserved__15HdSceneDelegate20SampleIndexedPrimvarERKNS_7SdfPathERKNS_7TfTokenEmPfPNS_7VtValueEPNS_7VtArrayIiEE(ptr noundef nonnull align 8 dereferenceable(24) %0, ptr noundef nonnull align 4 dereferenceable(8) %1, ptr noundef nonnull align 8 dereferenceable(8) %2, i64 noundef %3, ptr noundef writeonly captures(none) %4, ptr noundef %5, ptr noundef %6) unnamed_addr #0 align 2 personality ptr @__gxx_personality_v0 {
  %8 = alloca %"class.pxrInternal_v0_24__pxrReserved__::VtValue", align 8
  %.not = icmp eq i64 %3, 0
  br i1 %.not, label %_ZN32pxrInternal_v0_24__pxrReserved__7VtValueD2Ev.exit, label %9

9:                                                ; preds = %7
  store float 0.000000e+00, ptr %4, align 4
  %10 = load ptr, ptr %0, align 8
  %11 = getelementptr inbounds nuw i8, ptr %10, i64 128
  %12 = load ptr, ptr %11, align 8
  call void %12(ptr dead_on_unwind nonnull writable sret(%"class.pxrInternal_v0_24__pxrReserved__::VtValue") align 8 %8, ptr noundef nonnull align 8 dereferenceable(24) %0, ptr noundef nonnull align 4 dereferenceable(8) %1, ptr noundef nonnull align 8 dereferenceable(8) %2, ptr noundef %6)
  %.not.i = icmp eq ptr %5, %8
  br i1 %.not.i, label %_ZN32pxrInternal_v0_24__pxrReserved__7VtValueaSEOS0_.exit, label %13

13:                                               ; preds = %9
  call void @_ZN32pxrInternal_v0_24__pxrReserved__7VtValue5_MoveERS0_S1_(ptr noundef nonnull align 8 dereferenceable(16) %8, ptr noundef nonnull align 8 dereferenceable(16) %5) #14
  br label %_ZN32pxrInternal_v0_24__pxrReserved__7VtValueaSEOS0_.exit

_ZN32pxrInternal_v0_24__pxrReserved__7VtValueaSEOS0_.exit: ; preds = %9, %13
  %14 = getelementptr inbounds nuw i8, ptr %8, i64 8
  %15 = load ptr, ptr %14, align 8
  %16 = ptrtoint ptr %15 to i64
  %.not.i.i = icmp eq ptr %15, null
  %17 = and i64 %16, 3
  %18 = icmp eq i64 %17, 3
  %or.cond.i.i = or i1 %.not.i.i, %18
  br i1 %or.cond.i.i, label %_ZN32pxrInternal_v0_24__pxrReserved__7VtValueD2Ev.exit, label %19

19:                                               ; preds = %_ZN32pxrInternal_v0_24__pxrReserved__7VtValueaSEOS0_.exit
  %20 = and i64 %16, -8
  %21 = inttoptr i64 %20 to ptr
  %22 = getelementptr inbounds nuw i8, ptr %21, i64 32
  %23 = load ptr, ptr %22, align 8
  invoke void %23(ptr noundef nonnull align 8 dereferenceable(16) %8)
          to label %_ZN32pxrInternal_v0_24__pxrReserved__7VtValueD2Ev.exit unwind label %24

24:                                               ; preds = %19
  %25 = landingpad { ptr, i32 }
          catch ptr null
  %26 = extractvalue { ptr, i32 } %25, 0
  call void @__clang_call_terminate(ptr %26) #13
  unreachable

_ZN32pxrInternal_v0_24__pxrReserved__7VtValueD2Ev.exit: ; preds = %19, %_ZN32pxrInternal_v0_24__pxrReserved__7VtValueaSEOS0_.exit, %7
  %.0 = phi i64 [ 0, %7 ], [ 1, %_ZN32pxrInternal_v0_24__pxrReserved__7VtValueaSEOS0_.exit ], [ 1, %19 ]
  ret i64 %.0
}